; Function Attrs: mustprogress nofree norecurse nosync nounwind willreturn memory(read, inaccessiblemem: none) uwtable
define dso_local noundef zeroext i1 @_ZN4llvm10X86TTIImpl20isLegalMaskedScatterEPNS_4TypeENS_5AlignE(ptr noundef nonnull readonly align 8 captures(none) dereferenceable(72) %0, ptr noundef readonly captures(none) %1, i8 %2) local_unnamed_addr #0 align 2 {
  %4 = getelementptr inbounds nuw i8, ptr %0, i64 16
  %5 = load ptr, ptr %4, align 8
  %6 = getelementptr inbounds nuw i8, ptr %5, i64 304
  %7 = load i32, ptr %6, align 8
  %8 = icmp sgt i32 %7, 8
  br i1 %8, label %9, label %_ZN4llvm10X86TTIImpl26isLegalMaskedGatherScatterEPNS_4TypeENS_5AlignE.exit

9:                                                ; preds = %3
  %10 = getelementptr inbounds nuw i8, ptr %5, i64 474
  %11 = load i8, ptr %10, align 2
  %12 = trunc i8 %11 to i1
  br i1 %12, label %13, label %_ZN4llvm10X86TTIImpl26isLegalMaskedGatherScatterEPNS_4TypeENS_5AlignE.exit

13:                                               ; preds = %9
  %14 = getelementptr inbounds nuw i8, ptr %1, i64 8
  %15 = load i32, ptr %14, align 8
  %16 = and i32 %15, 255
  %17 = add nsw i32 %16, -17
  %spec.select.i.i.i = icmp ult i32 %17, 2
  br i1 %spec.select.i.i.i, label %18, label %_ZNK4llvm4Type13getScalarTypeEv.exit.i

18:                                               ; preds = %13
  %19 = getelementptr inbounds nuw i8, ptr %1, i64 16
  %20 = load ptr, ptr %19, align 8
  %21 = load ptr, ptr %20, align 8
  %.phi.trans.insert.i = getelementptr inbounds nuw i8, ptr %21, i64 8
  %.pre.i = load i32, ptr %.phi.trans.insert.i, align 8
  br label %_ZNK4llvm4Type13getScalarTypeEv.exit.i

_ZNK4llvm4Type13getScalarTypeEv.exit.i:           ; preds = %18, %13
  %22 = phi i32 [ %.pre.i, %18 ], [ %15, %13 ]
  %trunc.i = trunc i32 %22 to i8
  switch i8 %trunc.i, label %.fold.split.i [
    i8 14, label %_ZN4llvm10X86TTIImpl26isLegalMaskedGatherScatterEPNS_4TypeENS_5AlignE.exit
    i8 2, label %_ZN4llvm10X86TTIImpl26isLegalMaskedGatherScatterEPNS_4TypeENS_5AlignE.exit
    i8 3, label %_ZN4llvm10X86TTIImpl26isLegalMaskedGatherScatterEPNS_4TypeENS_5AlignE.exit
    i8 12, label %23
  ]

23:                                               ; preds = %_ZNK4llvm4Type13getScalarTypeEv.exit.i
  %24 = lshr i32 %22, 8
  %25 = icmp eq i32 %24, 32
  %26 = icmp eq i32 %24, 64
  %27 = or i1 %25, %26
  br label %_ZN4llvm10X86TTIImpl26isLegalMaskedGatherScatterEPNS_4TypeENS_5AlignE.exit

.fold.split.i:                                    ; preds = %_ZNK4llvm4Type13getScalarTypeEv.exit.i
  br label %_ZN4llvm10X86TTIImpl26isLegalMaskedGatherScatterEPNS_4TypeENS_5AlignE.exit

_ZN4llvm10X86TTIImpl26isLegalMaskedGatherScatterEPNS_4TypeENS_5AlignE.exit: ; preds = %.fold.split.i, %23, %_ZNK4llvm4Type13getScalarTypeEv.exit.i, %_ZNK4llvm4Type13getScalarTypeEv.exit.i, %_ZNK4llvm4Type13getScalarTypeEv.exit.i, %3, %9
  %.0 = phi i1 [ false, %9 ], [ false, %3 ], [ %27, %23 ], [ true, %_ZNK4llvm4Type13getScalarTypeEv.exit.i ], [ true, %_ZNK4llvm4Type13getScalarTypeEv.exit.i ], [ true, %_ZNK4llvm4Type13getScalarTypeEv.exit.i ], [ false, %.fold.split.i ]
  ret i1 %.0
}